target datalayout = "e-m:e-p270:32:32-p271:32:32-p272:64:64-i64:64-i128:128-f80:128-n8:16:32:64-S128"
target triple = "x86_64-pc-linux-gnu"

%class.elapsedTimer = type <{ i64, i64, i8, [7 x i8] }>
%class.JavaThreadIteratorWithHandle = type { [8 x i8], %class.ThreadsListHandle, i32, [4 x i8] }
%class.ThreadsListHandle = type { %class.SafeThreadsListPtr, %class.elapsedTimer }
%class.SafeThreadsListPtr = type <{ ptr, ptr, ptr, i8, i8, [6 x i8] }>
%class.Thread = type { %class.ThreadShadow.base, i64, [43 x i64], ptr, ptr, i32, ptr, i64, i64, %class.ThreadLocalAllocBuffer, i64, %class.ThreadHeapSampler, %class.ThreadStatisticalInfo, %class.JfrThreadLocal, ptr, ptr, ptr, ptr, ptr, ptr, i64, i32, i32, ptr, i32, i32, i32, i32, i8, ptr }
%class.ThreadShadow.base = type <{ ptr, ptr, ptr, i32 }>
%class.ThreadLocalAllocBuffer = type <{ ptr, ptr, ptr, ptr, ptr, i64, i64, i64, i64, i32, i32, i32, i32, i64, %class.AdaptiveWeightedAverage, [4 x i8] }>
%class.AdaptiveWeightedAverage = type { float, i32, i32, i8, float }
%class.ThreadHeapSampler = type { i64 }
%class.ThreadStatisticalInfo = type { i64, i64 }
%class.JfrThreadLocal = type <{ ptr, ptr, ptr, ptr, ptr, ptr, ptr, ptr, ptr, ptr, %class.RefCountHandle, i64, i64, i64, i64, i64, i64, i64, i64, i64, i64, i64, i32, i32, i32, i16, i8, i8, i8, i8, i8, [5 x i8] }>
%class.RefCountHandle = type { ptr }
%class.ThreadLocalAllocStats = type { i32, i32, i32, i64, i64, i64, i64, i64, i32, i32 }
%class.ThreadsList = type { i32, i32, ptr, ptr, i64 }

@_ZN6Thread12_thr_currentE = external thread_local global ptr, align 8

; Function Attrs: mustprogress nounwind uwtable
define linkonce_odr hidden noundef i32 @_ZNK11ThreadsList6lengthEv(ptr noundef nonnull align 8 dereferenceable(32) %0) #1 comdat align 2 {
  %2 = alloca ptr, align 8
  store ptr %0, ptr %2, align 8
  %3 = load ptr, ptr %2, align 8
  %4 = getelementptr inbounds %class.ThreadsList, ptr %3, i32 0, i32 1
  %5 = load i32, ptr %4, align 4
  ret i32 %5
}

; Function Attrs: mustprogress nounwind uwtable
define linkonce_odr hidden noundef ptr @_ZNK18SafeThreadsListPtr4listEv(ptr noundef nonnull align 8 dereferenceable(26) %0) #1 comdat align 2 {
  %2 = alloca ptr, align 8
  store ptr %0, ptr %2, align 8
  %3 = load ptr, ptr %2, align 8
  %4 = getelementptr inbounds %class.SafeThreadsListPtr, ptr %3, i32 0, i32 2
  %5 = load ptr, ptr %4, align 8
  ret ptr %5
}

; Function Attrs: mustprogress nounwind uwtable
define linkonce_odr hidden noundef i32 @_ZNK17ThreadsListHandle6lengthEv(ptr noundef nonnull align 8 dereferenceable(56) %0) #1 comdat align 2 {
  %2 = alloca ptr, align 8
  store ptr %0, ptr %2, align 8
  %3 = load ptr, ptr %2, align 8
  %4 = call noundef ptr @_ZNK17ThreadsListHandle4listEv(ptr noundef nonnull align 8 dereferenceable(56) %3)
  %5 = call noundef i32 @_ZNK11ThreadsList6lengthEv(ptr noundef nonnull align 8 dereferenceable(32) %4)
  ret i32 %5
}

; Function Attrs: mustprogress nounwind uwtable
define linkonce_odr hidden noundef ptr @_ZN6Thread15current_or_nullEv() #1 comdat align 2 {
  %1 = call align 8 ptr @llvm.threadlocal.address.p0(ptr align 8 @_ZN6Thread12_thr_currentE)
  %2 = load ptr, ptr %1, align 8
  ret ptr %2
}

; Function Attrs: mustprogress nounwind uwtable
define linkonce_odr hidden noundef ptr @_ZNK11ThreadsList9thread_atEj(ptr noundef nonnull align 8 dereferenceable(32) %0, i32 noundef %1) #1 comdat align 2 {
  %3 = alloca ptr, align 8
  %4 = alloca i32, align 4
  store ptr %0, ptr %3, align 8
  store i32 %1, ptr %4, align 4
  %5 = load ptr, ptr %3, align 8
  %6 = getelementptr inbounds %class.ThreadsList, ptr %5, i32 0, i32 3
  %7 = load ptr, ptr %6, align 8
  %8 = load i32, ptr %4, align 4
  %9 = zext i32 %8 to i64
  %10 = getelementptr inbounds ptr, ptr %7, i64 %9
  %11 = load ptr, ptr %10, align 8
  ret ptr %11
}

; Function Attrs: mustprogress nounwind uwtable
define linkonce_odr hidden noundef ptr @_ZNK17ThreadsListHandle4listEv(ptr noundef nonnull align 8 dereferenceable(56) %0) #1 comdat align 2 {
  %2 = alloca ptr, align 8
  store ptr %0, ptr %2, align 8
  %3 = load ptr, ptr %2, align 8
  %4 = getelementptr inbounds %class.ThreadsListHandle, ptr %3, i32 0, i32 0
  %5 = call noundef ptr @_ZNK18SafeThreadsListPtr4listEv(ptr noundef nonnull align 8 dereferenceable(26) %4)
  ret ptr %5
}

; Function Attrs: mustprogress nounwind uwtable
define linkonce_odr hidden noundef i32 @_ZNK28JavaThreadIteratorWithHandle6lengthEv(ptr noundef nonnull align 8 dereferenceable(68) %0) #1 comdat align 2 {
  %2 = alloca ptr, align 8
  store ptr %0, ptr %2, align 8
  %3 = load ptr, ptr %2, align 8
  %4 = getelementptr inbounds %class.JavaThreadIteratorWithHandle, ptr %3, i32 0, i32 1
  %5 = call noundef i32 @_ZNK17ThreadsListHandle6lengthEv(ptr noundef nonnull align 8 dereferenceable(56) %4)
  ret i32 %5
}

; Function Attrs: mustprogress nounwind uwtable
define linkonce_odr hidden noundef ptr @_ZN6Thread7currentEv() #1 comdat align 2 {
  %1 = alloca ptr, align 8
  %2 = call noundef ptr @_ZN6Thread15current_or_nullEv()
  store ptr %2, ptr %1, align 8
  %3 = load ptr, ptr %1, align 8
  ret ptr %3
}

; Function Attrs: mustprogress nounwind uwtable
define linkonce_odr hidden noundef nonnull align 8 dereferenceable(116) ptr @_ZN6Thread4tlabEv(ptr noundef nonnull align 8 dereferenceable(888) %0) #1 comdat align 2 {
  %2 = alloca ptr, align 8
  store ptr %0, ptr %2, align 8
  %3 = load ptr, ptr %2, align 8
  %4 = getelementptr inbounds %class.Thread, ptr %3, i32 0, i32 9
  ret ptr %4
}

; Function Attrs: mustprogress nounwind uwtable
define linkonce_odr hidden void @_ZN28JavaThreadIteratorWithHandleD2Ev(ptr noundef nonnull align 8 dereferenceable(68) %0) unnamed_addr #1 comdat align 2 {
  %2 = alloca ptr, align 8
  store ptr %0, ptr %2, align 8
  %3 = load ptr, ptr %2, align 8
  %4 = getelementptr inbounds %class.JavaThreadIteratorWithHandle, ptr %3, i32 0, i32 1
  call void @_ZN17ThreadsListHandleD1Ev(ptr noundef nonnull align 8 dereferenceable(56) %4) #12
  ret void
}

; Function Attrs: mustprogress nounwind uwtable
define linkonce_odr hidden noundef ptr @_ZN28JavaThreadIteratorWithHandle4nextEv(ptr noundef nonnull align 8 dereferenceable(68) %0) #1 comdat align 2 {
  %2 = alloca ptr, align 8
  %3 = alloca ptr, align 8
  store ptr %0, ptr %3, align 8
  %4 = load ptr, ptr %3, align 8
  %5 = getelementptr inbounds %class.JavaThreadIteratorWithHandle, ptr %4, i32 0, i32 2
  %6 = load i32, ptr %5, align 8
  %7 = call noundef i32 @_ZNK28JavaThreadIteratorWithHandle6lengthEv(ptr noundef nonnull align 8 dereferenceable(68) %4)
  %8 = icmp uge i32 %6, %7
  br i1 %8, label %9, label %10

9:                                                ; preds = %1
  store ptr null, ptr %2, align 8
  br label %17

10:                                               ; preds = %1
  %11 = getelementptr inbounds %class.JavaThreadIteratorWithHandle, ptr %4, i32 0, i32 1
  %12 = call noundef ptr @_ZNK17ThreadsListHandle4listEv(ptr noundef nonnull align 8 dereferenceable(56) %11)
  %13 = getelementptr inbounds %class.JavaThreadIteratorWithHandle, ptr %4, i32 0, i32 2
  %14 = load i32, ptr %13, align 8
  %15 = add i32 %14, 1
  store i32 %15, ptr %13, align 8
  %16 = call noundef ptr @_ZNK11ThreadsList9thread_atEj(ptr noundef nonnull align 8 dereferenceable(32) %12, i32 noundef %14)
  store ptr %16, ptr %2, align 8
  br label %17

17:                                               ; preds = %10, %9
  %18 = load ptr, ptr %2, align 8
  ret ptr %18
}

; Function Attrs: mustprogress nounwind uwtable
define linkonce_odr hidden void @_ZN28JavaThreadIteratorWithHandleC2Ev(ptr noundef nonnull align 8 dereferenceable(68) %0) unnamed_addr #1 comdat align 2 {
  %2 = alloca ptr, align 8
  store ptr %0, ptr %2, align 8
  %3 = load ptr, ptr %2, align 8
  %4 = getelementptr inbounds %class.JavaThreadIteratorWithHandle, ptr %3, i32 0, i32 1
  %5 = call noundef ptr @_ZN6Thread7currentEv()
  call void @_ZN17ThreadsListHandleC1EP6Thread(ptr noundef nonnull align 8 dereferenceable(56) %4, ptr noundef %5)
  %6 = getelementptr inbounds %class.JavaThreadIteratorWithHandle, ptr %3, i32 0, i32 2
  store i32 0, ptr %6, align 8
  ret void
}

; Function Attrs: mustprogress nounwind uwtable
define hidden void @_ZN14ShenandoahHeap12tlabs_retireEb(ptr noundef nonnull align 8 dereferenceable(2657) %0, i1 noundef zeroext %1) #1 align 2 {
  %3 = alloca ptr, align 8
  %4 = alloca i8, align 1
  %5 = alloca %class.ThreadLocalAllocStats, align 8
  %6 = alloca %class.JavaThreadIteratorWithHandle, align 8
  %7 = alloca ptr, align 8
  %8 = alloca ptr, align 8
  store ptr %0, ptr %3, align 8
  %9 = zext i1 %1 to i8
  store i8 %9, ptr %4, align 1
  call void @_ZN21ThreadLocalAllocStatsC1Ev(ptr noundef nonnull align 8 dereferenceable(64) %5)
  call void @_ZN28JavaThreadIteratorWithHandleC2Ev(ptr noundef nonnull align 8 dereferenceable(68) %6)
  br label %10

10:                                               ; preds = %23, %2
  %11 = call noundef ptr @_ZN28JavaThreadIteratorWithHandle4nextEv(ptr noundef nonnull align 8 dereferenceable(68) %6)
  store ptr %11, ptr %7, align 8
  %12 = load ptr, ptr %7, align 8
  %13 = icmp ne ptr %12, null
  br i1 %13, label %15, label %14

14:                                               ; preds = %10
  call void @_ZN28JavaThreadIteratorWithHandleD2Ev(ptr noundef nonnull align 8 dereferenceable(68) %6) #12
  br label %24

15:                                               ; preds = %10
  %16 = load ptr, ptr %7, align 8
  %17 = call noundef nonnull align 8 dereferenceable(116) ptr @_ZN6Thread4tlabEv(ptr noundef nonnull align 8 dereferenceable(888) %16)
  store ptr %17, ptr %8, align 8
  %18 = load ptr, ptr %8, align 8
  call void @_ZN22ThreadLocalAllocBuffer6retireEP21ThreadLocalAllocStats(ptr noundef nonnull align 8 dereferenceable(116) %18, ptr noundef %5)
  %19 = load i8, ptr %4, align 1
  %20 = trunc i8 %19 to i1
  br i1 %20, label %21, label %23

21:                                               ; preds = %15
  %22 = load ptr, ptr %8, align 8
  call void @_ZN22ThreadLocalAllocBuffer6resizeEv(ptr noundef nonnull align 8 dereferenceable(116) %22)
  br label %23

23:                                               ; preds = %21, %15
  br label %10, !llvm.loop !17

24:                                               ; preds = %14
  call void @_ZN21ThreadLocalAllocStats7publishEv(ptr noundef nonnull align 8 dereferenceable(64) %5)
  ret void
}