; Function Attrs: mustprogress nounwind uwtable
define hidden void @_ZN14ShenandoahHeap12tlabs_retireEb(ptr nocapture noundef nonnull readnone align 8 dereferenceable(2657) %0, i1 noundef zeroext %1) local_unnamed_addr #1 align 2 {
  %3 = alloca %class.ThreadLocalAllocStats, align 8
  %4 = alloca %class.JavaThreadIteratorWithHandle, align 8
  call void @_ZN21ThreadLocalAllocStatsC1Ev(ptr noundef nonnull align 8 dereferenceable(64) %3) #26
  %5 = getelementptr inbounds i8, ptr %4, i64 8
  %6 = call align 8 ptr @llvm.threadlocal.address.p0(ptr align 8 @_ZN6Thread12_thr_currentE)
  %7 = load ptr, ptr %6, align 8
  call void @_ZN17ThreadsListHandleC1EP6Thread(ptr noundef nonnull align 8 dereferenceable(56) %5, ptr noundef %7) #26
  %8 = getelementptr inbounds i8, ptr %4, i64 64
  store i32 0, ptr %8, align 8
  %9 = getelementptr inbounds i8, ptr %4, i64 24
  %10 = load ptr, ptr %9, align 8
  %11 = getelementptr inbounds i8, ptr %10, i64 4
  %12 = load i32, ptr %11, align 4
  %.not.i6.not = icmp eq i32 %12, 0
  br i1 %.not.i6.not, label %_ZN28JavaThreadIteratorWithHandle4nextEv.exit.thread, label %_ZN28JavaThreadIteratorWithHandle4nextEv.exit.lr.ph

_ZN28JavaThreadIteratorWithHandle4nextEv.exit.lr.ph: ; preds = %2
  br i1 %1, label %_ZN28JavaThreadIteratorWithHandle4nextEv.exit.us, label %_ZN28JavaThreadIteratorWithHandle4nextEv.exit

_ZN28JavaThreadIteratorWithHandle4nextEv.exit.us: ; preds = %_ZN28JavaThreadIteratorWithHandle4nextEv.exit.lr.ph, %21
  %13 = phi ptr [ %24, %21 ], [ %10, %_ZN28JavaThreadIteratorWithHandle4nextEv.exit.lr.ph ]
  %14 = phi i32 [ %23, %21 ], [ 0, %_ZN28JavaThreadIteratorWithHandle4nextEv.exit.lr.ph ]
  %15 = add nuw i32 %14, 1
  store i32 %15, ptr %8, align 8
  %16 = getelementptr inbounds i8, ptr %13, i64 16
  %17 = load ptr, ptr %16, align 8
  %18 = zext i32 %14 to i64
  %19 = getelementptr inbounds ptr, ptr %17, i64 %18
  %20 = load ptr, ptr %19, align 8
  %.not.us = icmp eq ptr %20, null
  br i1 %.not.us, label %_ZN28JavaThreadIteratorWithHandle4nextEv.exit.thread, label %21

21:                                               ; preds = %_ZN28JavaThreadIteratorWithHandle4nextEv.exit.us
  %22 = getelementptr inbounds i8, ptr %20, i64 432
  call void @_ZN22ThreadLocalAllocBuffer6retireEP21ThreadLocalAllocStats(ptr noundef nonnull align 8 dereferenceable(116) %22, ptr noundef nonnull %3) #26
  call void @_ZN22ThreadLocalAllocBuffer6resizeEv(ptr noundef nonnull align 8 dereferenceable(116) %22) #26
  %23 = load i32, ptr %8, align 8
  %24 = load ptr, ptr %9, align 8
  %25 = getelementptr inbounds i8, ptr %24, i64 4
  %26 = load i32, ptr %25, align 4
  %.not.i.us = icmp ult i32 %23, %26
  br i1 %.not.i.us, label %_ZN28JavaThreadIteratorWithHandle4nextEv.exit.us, label %_ZN28JavaThreadIteratorWithHandle4nextEv.exit.thread, !llvm.loop !42

_ZN28JavaThreadIteratorWithHandle4nextEv.exit:    ; preds = %_ZN28JavaThreadIteratorWithHandle4nextEv.exit.lr.ph, %35
  %27 = phi ptr [ %38, %35 ], [ %10, %_ZN28JavaThreadIteratorWithHandle4nextEv.exit.lr.ph ]
  %28 = phi i32 [ %37, %35 ], [ 0, %_ZN28JavaThreadIteratorWithHandle4nextEv.exit.lr.ph ]
  %29 = add nuw i32 %28, 1
  store i32 %29, ptr %8, align 8
  %30 = getelementptr inbounds i8, ptr %27, i64 16
  %31 = load ptr, ptr %30, align 8
  %32 = zext i32 %28 to i64
  %33 = getelementptr inbounds ptr, ptr %31, i64 %32
  %34 = load ptr, ptr %33, align 8
  %.not = icmp eq ptr %34, null
  br i1 %.not, label %_ZN28JavaThreadIteratorWithHandle4nextEv.exit.thread, label %35

_ZN28JavaThreadIteratorWithHandle4nextEv.exit.thread: ; preds = %_ZN28JavaThreadIteratorWithHandle4nextEv.exit, %35, %_ZN28JavaThreadIteratorWithHandle4nextEv.exit.us, %21, %2
  call void @_ZN17ThreadsListHandleD1Ev(ptr noundef nonnull align 8 dereferenceable(56) %5) #26
  call void @_ZN21ThreadLocalAllocStats7publishEv(ptr noundef nonnull align 8 dereferenceable(64) %3) #26
  ret void

35:                                               ; preds = %_ZN28JavaThreadIteratorWithHandle4nextEv.exit
  %36 = getelementptr inbounds i8, ptr %34, i64 432
  call void @_ZN22ThreadLocalAllocBuffer6retireEP21ThreadLocalAllocStats(ptr noundef nonnull align 8 dereferenceable(116) %36, ptr noundef nonnull %3) #26
  %37 = load i32, ptr %8, align 8
  %38 = load ptr, ptr %9, align 8
  %39 = getelementptr inbounds i8, ptr %38, i64 4
  %40 = load i32, ptr %39, align 4
  %.not.i = icmp ult i32 %37, %40
  br i1 %.not.i, label %_ZN28JavaThreadIteratorWithHandle4nextEv.exit, label %_ZN28JavaThreadIteratorWithHandle4nextEv.exit.thread, !llvm.loop !42
}